target datalayout = "e-m:e-p270:32:32-p271:32:32-p272:64:64-i64:64-i128:128-f80:128-n8:16:32:64-S128"
target triple = "x86_64-pc-linux-gnu"

%struct.SubDiagonalOp = type { i32, i64, ptr, ptr }

; Function Attrs: nounwind uwtable
define void @QuESTAssert(i32 noundef %0, i32 noundef %1, ptr noundef %2) #0 {
  %4 = alloca i32, align 4
  %5 = alloca i32, align 4
  %6 = alloca ptr, align 8
  store i32 %0, ptr %4, align 4, !tbaa !9
  store i32 %1, ptr %5, align 4, !tbaa !9
  store ptr %2, ptr %6, align 8, !tbaa !4
  %7 = load i32, ptr %4, align 4, !tbaa !9
  %8 = icmp ne i32 %7, 0
  br i1 %8, label %15, label %9

9:                                                ; preds = %3
  %10 = load i32, ptr %5, align 4, !tbaa !9
  %11 = zext i32 %10 to i64
  %12 = getelementptr inbounds nuw [92 x ptr], ptr @errorMessages, i64 0, i64 %11
  %13 = load ptr, ptr %12, align 8, !tbaa !4
  %14 = load ptr, ptr %6, align 8, !tbaa !4
  call void @invalidQuESTInputError(ptr noundef %13, ptr noundef %14)
  br label %15

15:                                               ; preds = %9, %3
  ret void
}

; Function Attrs: nounwind uwtable
define void @validateUnitarySubDiagOp(ptr noundef byval(%struct.SubDiagonalOp) align 8 %0, ptr noundef %1) #0 {
  %3 = alloca ptr, align 8
  %4 = alloca i64, align 8
  %5 = alloca i64, align 8
  %6 = alloca double, align 8
  store ptr %1, ptr %3, align 8, !tbaa !4
  call void @llvm.lifetime.start.p0(i64 8, ptr %4) #7
  %7 = getelementptr inbounds nuw %struct.SubDiagonalOp, ptr %0, i32 0, i32 0
  %8 = load i32, ptr %7, align 8, !tbaa !36
  %9 = zext i32 %8 to i64
  %10 = shl i64 1, %9
  store i64 %10, ptr %4, align 8, !tbaa !32
  call void @llvm.lifetime.start.p0(i64 8, ptr %5) #7
  store i64 0, ptr %5, align 8, !tbaa !32
  br label %11

11:                                               ; preds = %45, %2
  %12 = load i64, ptr %5, align 8, !tbaa !32
  %13 = load i64, ptr %4, align 8, !tbaa !32
  %14 = icmp slt i64 %12, %13
  br i1 %14, label %16, label %15

15:                                               ; preds = %11
  call void @llvm.lifetime.end.p0(i64 8, ptr %5) #7
  br label %48

16:                                               ; preds = %11
  call void @llvm.lifetime.start.p0(i64 8, ptr %6) #7
  %17 = getelementptr inbounds nuw %struct.SubDiagonalOp, ptr %0, i32 0, i32 2
  %18 = load ptr, ptr %17, align 8, !tbaa !38
  %19 = load i64, ptr %5, align 8, !tbaa !32
  %20 = getelementptr inbounds double, ptr %18, i64 %19
  %21 = load double, ptr %20, align 8, !tbaa !15
  %22 = getelementptr inbounds nuw %struct.SubDiagonalOp, ptr %0, i32 0, i32 2
  %23 = load ptr, ptr %22, align 8, !tbaa !38
  %24 = load i64, ptr %5, align 8, !tbaa !32
  %25 = getelementptr inbounds double, ptr %23, i64 %24
  %26 = load double, ptr %25, align 8, !tbaa !15
  %27 = getelementptr inbounds nuw %struct.SubDiagonalOp, ptr %0, i32 0, i32 3
  %28 = load ptr, ptr %27, align 8, !tbaa !39
  %29 = load i64, ptr %5, align 8, !tbaa !32
  %30 = getelementptr inbounds double, ptr %28, i64 %29
  %31 = load double, ptr %30, align 8, !tbaa !15
  %32 = getelementptr inbounds nuw %struct.SubDiagonalOp, ptr %0, i32 0, i32 3
  %33 = load ptr, ptr %32, align 8, !tbaa !39
  %34 = load i64, ptr %5, align 8, !tbaa !32
  %35 = getelementptr inbounds double, ptr %33, i64 %34
  %36 = load double, ptr %35, align 8, !tbaa !15
  %37 = fmul double %31, %36
  %38 = call double @llvm.fmuladd.f64(double %21, double %26, double %37)
  store double %38, ptr %6, align 8, !tbaa !15
  %39 = load double, ptr %6, align 8, !tbaa !15
  %40 = fsub double 1.000000e+00, %39
  %41 = call double @llvm.fabs.f64(double %40)
  %42 = fcmp olt double %41, 1.000000e-13
  %43 = zext i1 %42 to i32
  %44 = load ptr, ptr %3, align 8, !tbaa !4
  call void @QuESTAssert(i32 noundef %43, i32 noundef 24, ptr noundef %44)
  call void @llvm.lifetime.end.p0(i64 8, ptr %6) #7
  br label %45

45:                                               ; preds = %16
  %46 = load i64, ptr %5, align 8, !tbaa !32
  %47 = add nsw i64 %46, 1
  store i64 %47, ptr %5, align 8, !tbaa !32
  br label %11

48:                                               ; preds = %15
  call void @llvm.lifetime.end.p0(i64 8, ptr %4) #7
  ret void
}