; Function Attrs: nounwind uwtable
define void @validateUnitarySubDiagOp(ptr noundef readonly byval(%struct.SubDiagonalOp) align 8 captures(none) %0, ptr noundef %1) local_unnamed_addr #3 {
  %3 = load i32, ptr %0, align 8, !tbaa !21
  %.not = icmp eq i32 %3, 63
  br i1 %.not, label %._crit_edge, label %.lr.ph

.lr.ph:                                           ; preds = %2
  %4 = zext nneg i32 %3 to i64
  %5 = shl nuw i64 1, %4
  %6 = getelementptr inbounds nuw i8, ptr %0, i64 16
  %7 = load ptr, ptr %6, align 8, !tbaa !24
  %8 = getelementptr inbounds nuw i8, ptr %0, i64 24
  %9 = load ptr, ptr %8, align 8, !tbaa !25
  %smax = tail call i64 @llvm.smax.i64(i64 %5, i64 1)
  br label %10

._crit_edge:                                      ; preds = %QuESTAssert.exit, %2
  ret void

10:                                               ; preds = %.lr.ph, %QuESTAssert.exit
  %.08 = phi i64 [ 0, %.lr.ph ], [ %21, %QuESTAssert.exit ]
  %11 = getelementptr inbounds nuw double, ptr %7, i64 %.08
  %12 = load double, ptr %11, align 8, !tbaa !9
  %13 = getelementptr inbounds nuw double, ptr %9, i64 %.08
  %14 = load double, ptr %13, align 8, !tbaa !9
  %15 = fmul double %14, %14
  %16 = tail call double @llvm.fmuladd.f64(double %12, double %12, double %15)
  %17 = fsub double 1.000000e+00, %16
  %18 = tail call double @llvm.fabs.f64(double %17)
  %19 = fcmp uge double %18, 1.000000e-13
  br i1 %19, label %20, label %QuESTAssert.exit

20:                                               ; preds = %10
  tail call void @invalidQuESTInputError(ptr noundef nonnull @.str.26, ptr noundef %1)
  br label %QuESTAssert.exit

QuESTAssert.exit:                                 ; preds = %10, %20
  %21 = add nuw nsw i64 %.08, 1
  %exitcond.not = icmp eq i64 %21, %smax
  br i1 %exitcond.not, label %._crit_edge, label %10
}